target datalayout = "e-m:e-p270:32:32-p271:32:32-p272:64:64-i64:64-i128:128-f80:128-n8:16:32:64-S128"
target triple = "x86_64-pc-linux-gnu"

%struct.slurm_ops_t = type { ptr, ptr, ptr, ptr, ptr, ptr, ptr, ptr, ptr, ptr, ptr, ptr, ptr, ptr, ptr, ptr, ptr, ptr, ptr, ptr, ptr, ptr, ptr }

@plugin_inited = internal global i32 0, align 4
@ops = internal global %struct.slurm_ops_t zeroinitializer, align 8
@.str.54 = private unnamed_addr constant [137 x i8] c"%s: Trying to initialize cgroups but CgroupPlugin=disabled is set in cgroup.conf. Please, unset any configuration that is using cgroups.\00", align 1
@__func__.cgroup_g_initialize = private unnamed_addr constant [20 x i8] c"cgroup_g_initialize\00", align 1

; Function Attrs: nounwind uwtable
define dso_local i32 @cgroup_g_initialize(i32 noundef %0) #0 {
  %2 = alloca i32, align 4
  store i32 %0, ptr %2, align 4
  %3 = load i32, ptr @plugin_inited, align 4
  %4 = icmp eq i32 %3, 1
  br i1 %4, label %5, label %6

5:                                                ; preds = %1
  call void (ptr, ...) @fatal(ptr noundef @.str.54, ptr noundef @__func__.cgroup_g_initialize) #11
  unreachable

6:                                                ; preds = %1
  %7 = load ptr, ptr @ops, align 8
  %8 = load i32, ptr %2, align 4
  %9 = call i32 %7(i32 noundef %8)
  ret i32 %9
}