; Function Attrs: nounwind uwtable
define dso_local i32 @cgroup_g_initialize(i32 noundef %0) local_unnamed_addr #0 {
  %2 = load i32, ptr @plugin_inited, align 4
  %3 = icmp eq i32 %2, 1
  br i1 %3, label %4, label %5

4:                                                ; preds = %1
  tail call void (ptr, ...) @fatal(ptr noundef nonnull @.str.54, ptr noundef nonnull @__func__.cgroup_g_initialize) #14
  unreachable

5:                                                ; preds = %1
  %6 = load ptr, ptr @ops, align 8
  %7 = tail call i32 %6(i32 noundef %0) #12
  ret i32 %7
}